((dp0
I470912
(I1151
I11
tp1
sI470914
(I1246
I7
tp2
sI470915
(I330
I2
tp3
sI470916
(I284
I2
tp4
sI470917
(I384
I6
tp5
sI470918
(I1362
I1
tp6
sI470919
(I257
I1
tp7
sI470921
(I30
I2
tp8
sI470922
(I169
I1
tp9
sI470923
(I13
I1
tp10
sI470924
(I842
I1
tp11
sI470925
(I111
I2
tp12
sI240783
(I677
I1
tp13
sI240784
(I513
I1
tp14
sI240785
(I30
I9
tp15
sI240787
(I77
I1
tp16
sI470932
(I180
I2
tp17
sI240789
(I341
I1
tp18
sI470935
(I83
I1
tp19
sI470938
(I375
I2
tp20
sI210844
(I1421
I3
tp21
sI211717
(I193
I1
tp22
sI210976
(I248
I1
tp23
sI211362
(I478
I3
tp24
sI240807
(I551
I2
tp25
sI210985
(I357
I2
tp26
sI211135
(I1064
I3
tp27
sI386991
(I154
I3
tp28
sI471600
(I71
I2
tp29
sI241970
(I78
I1
tp30
sI471092
(I100
I4
tp31
sI471221
(I2005
I2
tp32
sI240788
(I1255
I2
tp33
sI211383
(I93
I2
tp34
sI240820
(I272
I1
tp35
sI240778
(I73
I2
tp36
sI471358
(I89
I1
tp37
sI211263
(I224
I1
tp38
sI210848
(I76
I2
tp39
sI211138
(I495
I1
tp40
sI211221
(I410
I1
tp41
sI240780
(I103
I2
tp42
sI240781
(I113
I1
tp43
sI211281
(I72
I3
tp44
sI240852
(I238
I1
tp45
sI471129
(I50
I0
tp46
sI240777
(I132
I1
tp47
sI211168
(I351
I4
tp48
sI470928
(I32
I2
tp49
sI470911
(I215
I2
tp50
sI211025
(I429
I2
tp51
sI240892
(I4
I1
tp52
sI470907
(I76
I36
tp53
sI471916
(I105
I2
tp54
sI211187
(I189
I1
tp55
sI210942
(I116
I24
tp56
sI211241
(I69
I2
tp57
sI470904
(I88
I7
tp58
sI470905
(I192
I3
tp59
sI470906
(I177
I2
tp60
sI211067
(I1026
I15
tp61
sI211381
(I218
I2
tp62
sI470909
(I82
I13
tp63
sI470910
(I1472
I1
tp64
sI211711
(I217
I1
tp65
sI386992
F0.29999999999999999
tp66
.